; Function Attrs: mustprogress uwtable
define internal noundef ptr @"_ZN3tbb6detail2d19start_forINS1_13blocked_rangeImEEZN32pxrInternal_v0_24__pxrReserved__16WorkParallelForNIZNS5_12_GLOBAL__N_115_OpenClipLayersEPSt6vectorINS5_8TfRefPtrINS5_8SdfLayerEEESaISB_EERKS8_INSt7__cxx1112basic_stringIcSt11char_traitsIcESaIcEEESaISK_EERKNS5_7SdfPathEE3$_0EEvmOT_mE21Work_ParallelForN_TBBKNS1_16auto_partitionerEE6cancelERNS1_14execution_dataE"(ptr noundef nonnull align 64 dereferenceable(128) %0, ptr noundef nonnull align 8 dereferenceable(12) %1) unnamed_addr #0 align 2 {
  %3 = getelementptr inbounds nuw i8, ptr %0, i64 96
  %4 = load ptr, ptr %3, align 32
  %5 = getelementptr inbounds nuw i8, ptr %0, i64 120
  %6 = load i64, ptr %5, align 8
  %7 = load ptr, ptr %0, align 64
  %8 = load ptr, ptr %7, align 8
  tail call void %8(ptr noundef nonnull align 64 dereferenceable(128) %0) #24
  %9 = getelementptr inbounds nuw i8, ptr %4, i64 8
  %10 = atomicrmw sub ptr %9, i32 1 seq_cst, align 4
  %11 = add i32 %10, -1
  %12 = icmp sgt i32 %11, 0
  br i1 %12, label %"_ZN3tbb6detail2d19start_forINS1_13blocked_rangeImEEZN32pxrInternal_v0_24__pxrReserved__16WorkParallelForNIZNS5_12_GLOBAL__N_115_OpenClipLayersEPSt6vectorINS5_8TfRefPtrINS5_8SdfLayerEEESaISB_EERKS8_INSt7__cxx1112basic_stringIcSt11char_traitsIcESaIcEEESaISK_EERKNS5_7SdfPathEE3$_0EEvmOT_mE21Work_ParallelForN_TBBKNS1_16auto_partitionerEE8finalizeERKNS1_14execution_dataE.exit", label %.lr.ph.i.i

.lr.ph.i.i:                                       ; preds = %2, %14
  %.015.i.i = phi ptr [ %13, %14 ], [ %4, %2 ]
  %13 = load ptr, ptr %.015.i.i, align 8
  %.not.i.i = icmp eq ptr %13, null
  br i1 %.not.i.i, label %22, label %14

14:                                               ; preds = %.lr.ph.i.i
  %15 = getelementptr inbounds nuw i8, ptr %.015.i.i, i64 16
  %16 = load i64, ptr %15, align 8
  %17 = inttoptr i64 %16 to ptr
  tail call void @_ZN3tbb6detail2r110deallocateERNS0_2d117small_object_poolEPvmRKNS2_14execution_dataE(ptr noundef nonnull align 1 dereferenceable(1) %17, ptr noundef nonnull %.015.i.i, i64 noundef 32, ptr noundef nonnull align 8 dereferenceable(12) %1)
  %18 = getelementptr inbounds nuw i8, ptr %13, i64 8
  %19 = atomicrmw sub ptr %18, i32 1 seq_cst, align 4
  %20 = add i32 %19, -1
  %21 = icmp sgt i32 %20, 0
  br i1 %21, label %"_ZN3tbb6detail2d19start_forINS1_13blocked_rangeImEEZN32pxrInternal_v0_24__pxrReserved__16WorkParallelForNIZNS5_12_GLOBAL__N_115_OpenClipLayersEPSt6vectorINS5_8TfRefPtrINS5_8SdfLayerEEESaISB_EERKS8_INSt7__cxx1112basic_stringIcSt11char_traitsIcESaIcEEESaISK_EERKNS5_7SdfPathEE3$_0EEvmOT_mE21Work_ParallelForN_TBBKNS1_16auto_partitionerEE8finalizeERKNS1_14execution_dataE.exit", label %.lr.ph.i.i, !llvm.loop !102

22:                                               ; preds = %.lr.ph.i.i
  %23 = getelementptr inbounds i8, ptr %.015.i.i, i64 24
  %24 = atomicrmw add ptr %23, i64 -1 seq_cst, align 8
  %.not.i.i.i.i = icmp eq i64 %24, 1
  br i1 %.not.i.i.i.i, label %25, label %"_ZN3tbb6detail2d19start_forINS1_13blocked_rangeImEEZN32pxrInternal_v0_24__pxrReserved__16WorkParallelForNIZNS5_12_GLOBAL__N_115_OpenClipLayersEPSt6vectorINS5_8TfRefPtrINS5_8SdfLayerEEESaISB_EERKS8_INSt7__cxx1112basic_stringIcSt11char_traitsIcESaIcEEESaISK_EERKNS5_7SdfPathEE3$_0EEvmOT_mE21Work_ParallelForN_TBBKNS1_16auto_partitionerEE8finalizeERKNS1_14execution_dataE.exit"

25:                                               ; preds = %22
  %26 = getelementptr inbounds nuw i8, ptr %.015.i.i, i64 16
  %27 = ptrtoint ptr %26 to i64
  tail call void @_ZN3tbb6detail2r114notify_waitersEm(i64 noundef %27)
  br label %"_ZN3tbb6detail2d19start_forINS1_13blocked_rangeImEEZN32pxrInternal_v0_24__pxrReserved__16WorkParallelForNIZNS5_12_GLOBAL__N_115_OpenClipLayersEPSt6vectorINS5_8TfRefPtrINS5_8SdfLayerEEESaISB_EERKS8_INSt7__cxx1112basic_stringIcSt11char_traitsIcESaIcEEESaISK_EERKNS5_7SdfPathEE3$_0EEvmOT_mE21Work_ParallelForN_TBBKNS1_16auto_partitionerEE8finalizeERKNS1_14execution_dataE.exit"

"_ZN3tbb6detail2d19start_forINS1_13blocked_rangeImEEZN32pxrInternal_v0_24__pxrReserved__16WorkParallelForNIZNS5_12_GLOBAL__N_115_OpenClipLayersEPSt6vectorINS5_8TfRefPtrINS5_8SdfLayerEEESaISB_EERKS8_INSt7__cxx1112basic_stringIcSt11char_traitsIcESaIcEEESaISK_EERKNS5_7SdfPathEE3$_0EEvmOT_mE21Work_ParallelForN_TBBKNS1_16auto_partitionerEE8finalizeERKNS1_14execution_dataE.exit": ; preds = %14, %2, %22, %25
  %28 = inttoptr i64 %6 to ptr
  tail call void @_ZN3tbb6detail2r110deallocateERNS0_2d117small_object_poolEPvmRKNS2_14execution_dataE(ptr noundef nonnull align 1 dereferenceable(1) %28, ptr noundef nonnull %0, i64 noundef 128, ptr noundef nonnull align 8 dereferenceable(12) %1)
  ret ptr null
}